; Function Attrs: mustprogress nofree norecurse nosync nounwind willreturn memory(read, inaccessiblemem: none) uwtable
define zeroext range(i8 0, 2) i8 @Java_sun_awt_X11GraphicsConfig_isTranslucencyCapable(ptr nocapture noundef readnone %0, ptr nocapture noundef readnone %1, i64 noundef %2) local_unnamed_addr #5 {
  %4 = icmp eq i64 %2, 0
  br i1 %4, label %10, label %5

5:                                                ; preds = %3
  %6 = inttoptr i64 %2 to ptr
  %7 = getelementptr inbounds i8, ptr %6, i64 160
  %8 = load i32, ptr %7, align 8
  %.not = icmp ne i32 %8, 0
  %9 = zext i1 %.not to i8
  br label %10

10:                                               ; preds = %3, %5
  %.0 = phi i8 [ %9, %5 ], [ 0, %3 ]
  ret i8 %.0
}